target datalayout = "e-m:e-p270:32:32-p271:32:32-p272:64:64-i64:64-i128:128-f80:128-n8:16:32:64-S128"
target triple = "x86_64-pc-linux-gnu"

%"class.icu_77::SunTimeAngleFunc" = type { %"class.icu_77::CalendarAstronomer::AngleFunc" }
%"class.icu_77::CalendarAstronomer::AngleFunc" = type { ptr }

@_ZTVN6icu_7718CalendarAstronomer9AngleFuncE = unnamed_addr constant { [5 x ptr] } { [5 x ptr] [ptr null, ptr @_ZTIN6icu_7718CalendarAstronomer9AngleFuncE, ptr @__cxa_pure_virtual, ptr @_ZN6icu_7718CalendarAstronomer9AngleFuncD1Ev, ptr @_ZN6icu_7718CalendarAstronomer9AngleFuncD0Ev] }, align 8
@_ZTVN6icu_7716SunTimeAngleFuncE = unnamed_addr constant { [5 x ptr] } { [5 x ptr] [ptr null, ptr @_ZTIN6icu_7716SunTimeAngleFuncE, ptr @_ZN6icu_7716SunTimeAngleFunc4evalERNS_18CalendarAstronomerE, ptr @_ZN6icu_7716SunTimeAngleFuncD1Ev, ptr @_ZN6icu_7716SunTimeAngleFuncD0Ev] }, align 8
@_ZN6icu_7716SunTimeAngleFuncD1Ev = unnamed_addr alias void (ptr), ptr @_ZN6icu_7716SunTimeAngleFuncD2Ev

; Function Attrs: inlinehint mustprogress nounwind uwtable
define linkonce_odr void @_ZN6icu_7718CalendarAstronomer9AngleFuncC2Ev(ptr noundef nonnull align 8 dereferenceable(8) %0) unnamed_addr #8 comdat align 2 {
  %2 = alloca ptr, align 8
  store ptr %0, ptr %2, align 8, !tbaa !28
  %3 = load ptr, ptr %2, align 8
  store ptr getelementptr inbounds inrange(-16, 24) ({ [5 x ptr] }, ptr @_ZTVN6icu_7718CalendarAstronomer9AngleFuncE, i32 0, i32 0, i32 2), ptr %3, align 8, !tbaa !33
  ret void
}

; Function Attrs: inlinehint mustprogress nounwind uwtable
define linkonce_odr void @_ZN6icu_7716SunTimeAngleFuncC2Ev(ptr noundef nonnull align 8 dereferenceable(8) %0) unnamed_addr #8 comdat align 2 {
  %2 = alloca ptr, align 8
  store ptr %0, ptr %2, align 8, !tbaa !30
  %3 = load ptr, ptr %2, align 8
  call void @_ZN6icu_7718CalendarAstronomer9AngleFuncC2Ev(ptr noundef nonnull align 8 dereferenceable(8) %3) #10
  store ptr getelementptr inbounds inrange(-16, 24) ({ [5 x ptr] }, ptr @_ZTVN6icu_7716SunTimeAngleFuncE, i32 0, i32 0, i32 2), ptr %3, align 8, !tbaa !33
  ret void
}

; Function Attrs: mustprogress uwtable
define noundef double @_ZN6icu_7718CalendarAstronomer10getSunTimeEda(ptr noundef nonnull align 8 dereferenceable(57) %0, double noundef %1, i8 noundef signext %2) #0 align 2 personality ptr @__gxx_personality_v0 {
  %4 = alloca ptr, align 8
  %5 = alloca double, align 8
  %6 = alloca i8, align 1
  %7 = alloca %"class.icu_77::SunTimeAngleFunc", align 8
  %8 = alloca ptr, align 8
  %9 = alloca i32, align 4
  store ptr %0, ptr %4, align 8, !tbaa !3
  store double %1, ptr %5, align 8, !tbaa !15
  store i8 %2, ptr %6, align 1, !tbaa !32
  %10 = load ptr, ptr %4, align 8
  call void @llvm.lifetime.start.p0(i64 8, ptr %7) #10
  call void @_ZN6icu_7716SunTimeAngleFuncC2Ev(ptr noundef nonnull align 8 dereferenceable(8) %7) #10
  %11 = load double, ptr %5, align 8, !tbaa !15
  %12 = load i8, ptr %6, align 1, !tbaa !32
  %13 = invoke noundef double @_ZN6icu_7718CalendarAstronomer11timeOfAngleERNS0_9AngleFuncEddda(ptr noundef nonnull align 8 dereferenceable(57) %10, ptr noundef nonnull align 8 dereferenceable(8) %7, double noundef %11, double noundef 0x4076D3E003AB862B, double noundef 6.000000e+04, i8 noundef signext %12)
          to label %14 unwind label %15

14:                                               ; preds = %3
  call void @_ZN6icu_7716SunTimeAngleFuncD1Ev(ptr noundef nonnull align 8 dereferenceable(8) %7) #10
  call void @llvm.lifetime.end.p0(i64 8, ptr %7) #10
  ret double %13

15:                                               ; preds = %3
  %16 = landingpad { ptr, i32 }
          cleanup
  %17 = extractvalue { ptr, i32 } %16, 0
  store ptr %17, ptr %8, align 8
  %18 = extractvalue { ptr, i32 } %16, 1
  store i32 %18, ptr %9, align 4
  call void @_ZN6icu_7716SunTimeAngleFuncD1Ev(ptr noundef nonnull align 8 dereferenceable(8) %7) #10
  call void @llvm.lifetime.end.p0(i64 8, ptr %7) #10
  br label %19

19:                                               ; preds = %15
  %20 = load ptr, ptr %8, align 8
  %21 = load i32, ptr %9, align 4
  %22 = insertvalue { ptr, i32 } poison, ptr %20, 0
  %23 = insertvalue { ptr, i32 } %22, i32 %21, 1
  resume { ptr, i32 } %23
}